(dp0
I209
(dp1
I209
(lp2
I209
asI3209
(lp3
sI3278
(lp4
sI5400
(lp5
I209
aI5400
asI12052
(lp6
sI3320
(lp7
I209
aI3320
asI3356
(lp8
I209
aI3356
assI3209
(dp9
I209
(lp10
I3209
aI1299
aI209
asI3209
(lp11
I3209
asI3278
(lp12
sI5400
(lp13
I3209
aI3549
aI5400
asI12052
(lp14
sI3320
(lp15
I3209
aI3320
asI3356
(lp16
I3209
aI3356
assI3278
(dp17
I209
(lp18
I3278
aI3320
aI209
asI3209
(lp19
I3278
aI3209
asI3278
(lp20
I3278
asI5400
(lp21
I3278
aI3320
aI5400
asI12052
(lp22
sI3320
(lp23
I3278
aI3320
asI3356
(lp24
I3278
aI3320
aI3356
assI5400
(dp25
I209
(lp26
I5400
aI209
asI3209
(lp27
I5400
aI3561
aI286
aI3209
asI3278
(lp28
sI5400
(lp29
I5400
asI12052
(lp30
sI3320
(lp31
I5400
aI3320
asI3356
(lp32
I5400
aI3356
assI12052
(dp33
I209
(lp34
I12052
aI209
asI3209
(lp35
I12052
aI2687
aI7473
aI3209
asI3278
(lp36
sI5400
(lp37
I12052
aI5400
asI12052
(lp38
I12052
asI3320
(lp39
I12052
aI5400
aI3320
asI3356
(lp40
I12052
aI7018
aI3356
assI3320
(dp41
I209
(lp42
I3320
aI209
asI3209
(lp43
I3320
aI3209
asI3278
(lp44
sI5400
(lp45
I3320
aI5400
asI12052
(lp46
sI3320
(lp47
I3320
asI3356
(lp48
I3320
aI3356
assI3356
(dp49
I209
(lp50
sI3209
(lp51
sI3278
(lp52
sI5400
(lp53
sI12052
(lp54
sI3320
(lp55
I3356
aI3320
asI3356
(lp56
I3356
ass.